target datalayout = "e-m:e-p270:32:32-p271:32:32-p272:64:64-i64:64-i128:128-f80:128-n8:16:32:64-S128"
target triple = "x86_64-pc-linux-gnu"

@.str.9 = private unnamed_addr constant [6 x i8] c"UTF-8\00", align 1
@.str.10 = private unnamed_addr constant [9 x i8] c"UTF-16BE\00", align 1
@.str.11 = private unnamed_addr constant [9 x i8] c"UTF-16LE\00", align 1
@.str.12 = private unnamed_addr constant [7 x i8] c"UTF-16\00", align 1
@.str.13 = private unnamed_addr constant [7 x i8] c"UTF-32\00", align 1
@.str.14 = private unnamed_addr constant [9 x i8] c"UTF-32BE\00", align 1
@.str.15 = private unnamed_addr constant [9 x i8] c"UTF-32LE\00", align 1
@.str.16 = private unnamed_addr constant [5 x i8] c"SCSU\00", align 1
@.str.17 = private unnamed_addr constant [7 x i8] c"BOCU-1\00", align 1
@.str.18 = private unnamed_addr constant [6 x i8] c"UTF-7\00", align 1

; Function Attrs: mustprogress uwtable
define internal noundef signext i8 @_ZL15ucbuf_isCPKnownPKc(ptr noundef %0) #0 {
  %2 = alloca i8, align 1
  %3 = alloca ptr, align 8
  store ptr %0, ptr %3, align 8, !tbaa !18
  %4 = load ptr, ptr %3, align 8, !tbaa !18
  %5 = call i32 @ucnv_compareNames_77(ptr noundef @.str.9, ptr noundef %4)
  %6 = icmp eq i32 %5, 0
  br i1 %6, label %7, label %8

7:                                                ; preds = %1
  store i8 1, ptr %2, align 1
  br label %54

8:                                                ; preds = %1
  %9 = load ptr, ptr %3, align 8, !tbaa !18
  %10 = call i32 @ucnv_compareNames_77(ptr noundef @.str.10, ptr noundef %9)
  %11 = icmp eq i32 %10, 0
  br i1 %11, label %12, label %13

12:                                               ; preds = %8
  store i8 1, ptr %2, align 1
  br label %54

13:                                               ; preds = %8
  %14 = load ptr, ptr %3, align 8, !tbaa !18
  %15 = call i32 @ucnv_compareNames_77(ptr noundef @.str.11, ptr noundef %14)
  %16 = icmp eq i32 %15, 0
  br i1 %16, label %17, label %18

17:                                               ; preds = %13
  store i8 1, ptr %2, align 1
  br label %54

18:                                               ; preds = %13
  %19 = load ptr, ptr %3, align 8, !tbaa !18
  %20 = call i32 @ucnv_compareNames_77(ptr noundef @.str.12, ptr noundef %19)
  %21 = icmp eq i32 %20, 0
  br i1 %21, label %22, label %23

22:                                               ; preds = %18
  store i8 1, ptr %2, align 1
  br label %54

23:                                               ; preds = %18
  %24 = load ptr, ptr %3, align 8, !tbaa !18
  %25 = call i32 @ucnv_compareNames_77(ptr noundef @.str.13, ptr noundef %24)
  %26 = icmp eq i32 %25, 0
  br i1 %26, label %27, label %28

27:                                               ; preds = %23
  store i8 1, ptr %2, align 1
  br label %54

28:                                               ; preds = %23
  %29 = load ptr, ptr %3, align 8, !tbaa !18
  %30 = call i32 @ucnv_compareNames_77(ptr noundef @.str.14, ptr noundef %29)
  %31 = icmp eq i32 %30, 0
  br i1 %31, label %32, label %33

32:                                               ; preds = %28
  store i8 1, ptr %2, align 1
  br label %54

33:                                               ; preds = %28
  %34 = load ptr, ptr %3, align 8, !tbaa !18
  %35 = call i32 @ucnv_compareNames_77(ptr noundef @.str.15, ptr noundef %34)
  %36 = icmp eq i32 %35, 0
  br i1 %36, label %37, label %38

37:                                               ; preds = %33
  store i8 1, ptr %2, align 1
  br label %54

38:                                               ; preds = %33
  %39 = load ptr, ptr %3, align 8, !tbaa !18
  %40 = call i32 @ucnv_compareNames_77(ptr noundef @.str.16, ptr noundef %39)
  %41 = icmp eq i32 %40, 0
  br i1 %41, label %42, label %43

42:                                               ; preds = %38
  store i8 1, ptr %2, align 1
  br label %54

43:                                               ; preds = %38
  %44 = load ptr, ptr %3, align 8, !tbaa !18
  %45 = call i32 @ucnv_compareNames_77(ptr noundef @.str.17, ptr noundef %44)
  %46 = icmp eq i32 %45, 0
  br i1 %46, label %47, label %48

47:                                               ; preds = %43
  store i8 1, ptr %2, align 1
  br label %54

48:                                               ; preds = %43
  %49 = load ptr, ptr %3, align 8, !tbaa !18
  %50 = call i32 @ucnv_compareNames_77(ptr noundef @.str.18, ptr noundef %49)
  %51 = icmp eq i32 %50, 0
  br i1 %51, label %52, label %53

52:                                               ; preds = %48
  store i8 1, ptr %2, align 1
  br label %54

53:                                               ; preds = %48
  store i8 0, ptr %2, align 1
  br label %54

54:                                               ; preds = %53, %52, %47, %42, %37, %32, %27, %22, %17, %12, %7
  %55 = load i8, ptr %2, align 1
  ret i8 %55
}