; Function Attrs: mustprogress uwtable
define internal fastcc noundef signext range(i8 0, 2) i8 @_ZL15ucbuf_isCPKnownPKc(ptr noundef nonnull %0) unnamed_addr #0 {
  %2 = tail call i32 @ucnv_compareNames_77(ptr noundef nonnull @.str.9, ptr noundef nonnull %0)
  %3 = icmp eq i32 %2, 0
  br i1 %3, label %31, label %4

4:                                                ; preds = %1
  %5 = tail call i32 @ucnv_compareNames_77(ptr noundef nonnull @.str.10, ptr noundef nonnull %0)
  %6 = icmp eq i32 %5, 0
  br i1 %6, label %31, label %7

7:                                                ; preds = %4
  %8 = tail call i32 @ucnv_compareNames_77(ptr noundef nonnull @.str.11, ptr noundef nonnull %0)
  %9 = icmp eq i32 %8, 0
  br i1 %9, label %31, label %10

10:                                               ; preds = %7
  %11 = tail call i32 @ucnv_compareNames_77(ptr noundef nonnull @.str.12, ptr noundef nonnull %0)
  %12 = icmp eq i32 %11, 0
  br i1 %12, label %31, label %13

13:                                               ; preds = %10
  %14 = tail call i32 @ucnv_compareNames_77(ptr noundef nonnull @.str.13, ptr noundef nonnull %0)
  %15 = icmp eq i32 %14, 0
  br i1 %15, label %31, label %16

16:                                               ; preds = %13
  %17 = tail call i32 @ucnv_compareNames_77(ptr noundef nonnull @.str.14, ptr noundef nonnull %0)
  %18 = icmp eq i32 %17, 0
  br i1 %18, label %31, label %19

19:                                               ; preds = %16
  %20 = tail call i32 @ucnv_compareNames_77(ptr noundef nonnull @.str.15, ptr noundef nonnull %0)
  %21 = icmp eq i32 %20, 0
  br i1 %21, label %31, label %22

22:                                               ; preds = %19
  %23 = tail call i32 @ucnv_compareNames_77(ptr noundef nonnull @.str.16, ptr noundef nonnull %0)
  %24 = icmp eq i32 %23, 0
  br i1 %24, label %31, label %25

25:                                               ; preds = %22
  %26 = tail call i32 @ucnv_compareNames_77(ptr noundef nonnull @.str.17, ptr noundef nonnull %0)
  %27 = icmp eq i32 %26, 0
  br i1 %27, label %31, label %28

28:                                               ; preds = %25
  %29 = tail call i32 @ucnv_compareNames_77(ptr noundef nonnull @.str.18, ptr noundef nonnull %0)
  %30 = icmp eq i32 %29, 0
  %. = zext i1 %30 to i8
  br label %31

31:                                               ; preds = %28, %25, %22, %19, %16, %13, %10, %7, %4, %1
  %.0 = phi i8 [ 1, %1 ], [ 1, %4 ], [ 1, %7 ], [ 1, %10 ], [ 1, %13 ], [ 1, %16 ], [ 1, %19 ], [ 1, %22 ], [ 1, %25 ], [ %., %28 ]
  ret i8 %.0
}